target datalayout = "e-m:e-p270:32:32-p271:32:32-p272:64:64-i64:64-i128:128-f80:128-n8:16:32:64-S128"
target triple = "x86_64-pc-linux-gnu"

%"struct.(anonymous namespace)::CFGBlockInfo" = type <{ %"class.(anonymous namespace)::FactSet", %"class.(anonymous namespace)::FactSet", %"class.llvm::ImmutableMap", %"class.llvm::ImmutableMap", %"class.clang::SourceLocation", %"class.clang::SourceLocation", i32, i8, [3 x i8] }>
%"class.(anonymous namespace)::FactSet" = type { %"class.llvm::SmallVector.137" }
%"class.llvm::SmallVector.137" = type { %"class.llvm::SmallVectorImpl.138", %"struct.llvm::SmallVectorStorage.142" }
%"class.llvm::SmallVectorImpl.138" = type { %"class.llvm::SmallVectorTemplateBase.139" }
%"class.llvm::SmallVectorTemplateBase.139" = type { %"class.llvm::SmallVectorTemplateCommon.140" }
%"class.llvm::SmallVectorTemplateCommon.140" = type { %"class.llvm::SmallVectorBase.141" }
%"class.llvm::SmallVectorBase.141" = type { ptr, i64, i64 }
%"struct.llvm::SmallVectorStorage.142" = type { [8 x i8] }
%"class.llvm::ImmutableMap" = type { %"class.llvm::IntrusiveRefCntPtr" }
%"class.llvm::IntrusiveRefCntPtr" = type { ptr }
%"class.clang::SourceLocation" = type { i32 }
%"class.std::move_iterator" = type { ptr }

; Function Attrs: mustprogress nounwind uwtable
define linkonce_odr hidden noundef ptr @_ZNK4llvm25SmallVectorTemplateCommonItvE10getFirstElEv(ptr noundef nonnull align 8 dereferenceable(24) %0) #0 comdat align 2 {
  %2 = alloca ptr, align 8
  store ptr %0, ptr %2, align 8
  %3 = load ptr, ptr %2, align 8
  %4 = getelementptr inbounds i8, ptr %3, i64 24
  ret ptr %4
}

; Function Attrs: mustprogress nounwind uwtable
define linkonce_odr hidden void @_ZN4llvm25SmallVectorTemplateCommonItvEC2Em(ptr noundef nonnull align 8 dereferenceable(24) %0, i64 noundef %1) unnamed_addr #0 comdat align 2 {
  %3 = alloca ptr, align 8
  %4 = alloca i64, align 8
  store ptr %0, ptr %3, align 8
  store i64 %1, ptr %4, align 8
  %5 = load ptr, ptr %3, align 8
  %6 = call noundef ptr @_ZNK4llvm25SmallVectorTemplateCommonItvE10getFirstElEv(ptr noundef nonnull align 8 dereferenceable(24) %5)
  %7 = load i64, ptr %4, align 8
  call void @_ZN4llvm15SmallVectorBaseImEC2EPvm(ptr noundef nonnull align 8 dereferenceable(24) %5, ptr noundef %6, i64 noundef %7)
  ret void
}

; Function Attrs: mustprogress nounwind uwtable
define linkonce_odr hidden void @_ZN4llvm23SmallVectorTemplateBaseItLb1EEC2Em(ptr noundef nonnull align 8 dereferenceable(24) %0, i64 noundef %1) unnamed_addr #0 comdat align 2 {
  %3 = alloca ptr, align 8
  %4 = alloca i64, align 8
  store ptr %0, ptr %3, align 8
  store i64 %1, ptr %4, align 8
  %5 = load ptr, ptr %3, align 8
  %6 = load i64, ptr %4, align 8
  call void @_ZN4llvm25SmallVectorTemplateCommonItvEC2Em(ptr noundef nonnull align 8 dereferenceable(24) %5, i64 noundef %6)
  ret void
}

; Function Attrs: mustprogress nounwind uwtable
define linkonce_odr hidden void @_ZN4llvm15SmallVectorImplItEC2Ej(ptr noundef nonnull align 8 dereferenceable(24) %0, i32 noundef %1) unnamed_addr #0 comdat align 2 {
  %3 = alloca ptr, align 8
  %4 = alloca i32, align 4
  store ptr %0, ptr %3, align 8
  store i32 %1, ptr %4, align 4
  %5 = load ptr, ptr %3, align 8
  %6 = load i32, ptr %4, align 4
  %7 = zext i32 %6 to i64
  call void @_ZN4llvm23SmallVectorTemplateBaseItLb1EEC2Em(ptr noundef nonnull align 8 dereferenceable(24) %5, i64 noundef %7)
  ret void
}

; Function Attrs: mustprogress nounwind uwtable
define linkonce_odr hidden void @_ZN4llvm18IntrusiveRefCntPtrINS_11ImutAVLTreeINS_16ImutKeyValueInfoIPKN5clang9NamedDeclEjEEEEEC2EOS9_(ptr noundef nonnull align 8 dereferenceable(8) %0, ptr noundef nonnull align 8 dereferenceable(8) %1) unnamed_addr #0 comdat align 2 {
  %3 = alloca ptr, align 8
  %4 = alloca ptr, align 8
  store ptr %0, ptr %3, align 8
  store ptr %1, ptr %4, align 8
  %5 = load ptr, ptr %3, align 8
  %6 = getelementptr inbounds nuw %"class.llvm::IntrusiveRefCntPtr", ptr %5, i32 0, i32 0
  %7 = load ptr, ptr %4, align 8
  %8 = getelementptr inbounds nuw %"class.llvm::IntrusiveRefCntPtr", ptr %7, i32 0, i32 0
  %9 = load ptr, ptr %8, align 8
  store ptr %9, ptr %6, align 8
  %10 = load ptr, ptr %4, align 8
  %11 = getelementptr inbounds nuw %"class.llvm::IntrusiveRefCntPtr", ptr %10, i32 0, i32 0
  store ptr null, ptr %11, align 8
  ret void
}

; Function Attrs: mustprogress nounwind uwtable
define linkonce_odr hidden void @_ZN4llvm11SmallVectorItLj4EEC2EOS1_(ptr noundef nonnull align 8 dereferenceable(32) %0, ptr noundef nonnull align 8 dereferenceable(32) %1) unnamed_addr #0 comdat align 2 {
  %3 = alloca ptr, align 8
  %4 = alloca ptr, align 8
  store ptr %0, ptr %3, align 8
  store ptr %1, ptr %4, align 8
  %5 = load ptr, ptr %3, align 8
  call void @_ZN4llvm15SmallVectorImplItEC2Ej(ptr noundef nonnull align 8 dereferenceable(24) %5, i32 noundef 4)
  %6 = load ptr, ptr %4, align 8
  %7 = call noundef zeroext i1 @_ZNK4llvm15SmallVectorBaseImE5emptyEv(ptr noundef nonnull align 8 dereferenceable(24) %6)
  br i1 %7, label %11, label %8

8:                                                ; preds = %2
  %9 = load ptr, ptr %4, align 8
  %10 = call noundef nonnull align 8 dereferenceable(24) ptr @_ZN4llvm15SmallVectorImplItEaSEOS1_(ptr noundef nonnull align 8 dereferenceable(24) %5, ptr noundef nonnull align 8 dereferenceable(24) %9)
  br label %11

11:                                               ; preds = %8, %2
  ret void
}

; Function Attrs: mustprogress nounwind uwtable
define linkonce_odr hidden void @_ZN4llvm12ImmutableMapIPKN5clang9NamedDeclEjNS_16ImutKeyValueInfoIS4_jEEEC2EOS7_(ptr noundef nonnull align 8 dereferenceable(8) %0, ptr noundef nonnull align 8 dereferenceable(8) %1) unnamed_addr #0 comdat align 2 {
  %3 = alloca ptr, align 8
  %4 = alloca ptr, align 8
  store ptr %0, ptr %3, align 8
  store ptr %1, ptr %4, align 8
  %5 = load ptr, ptr %3, align 8
  %6 = getelementptr inbounds nuw %"class.llvm::ImmutableMap", ptr %5, i32 0, i32 0
  %7 = load ptr, ptr %4, align 8
  %8 = getelementptr inbounds nuw %"class.llvm::ImmutableMap", ptr %7, i32 0, i32 0
  call void @_ZN4llvm18IntrusiveRefCntPtrINS_11ImutAVLTreeINS_16ImutKeyValueInfoIPKN5clang9NamedDeclEjEEEEEC2EOS9_(ptr noundef nonnull align 8 dereferenceable(8) %6, ptr noundef nonnull align 8 dereferenceable(8) %8)
  ret void
}

; Function Attrs: mustprogress nounwind uwtable
define internal void @_ZN12_GLOBAL__N_17FactSetC2EOS0_(ptr noundef nonnull align 8 dereferenceable(32) %0, ptr noundef nonnull align 8 dereferenceable(32) %1) unnamed_addr #0 align 2 {
  %3 = alloca ptr, align 8
  %4 = alloca ptr, align 8
  store ptr %0, ptr %3, align 8
  store ptr %1, ptr %4, align 8
  %5 = load ptr, ptr %3, align 8
  %6 = getelementptr inbounds nuw %"class.(anonymous namespace)::FactSet", ptr %5, i32 0, i32 0
  %7 = load ptr, ptr %4, align 8
  %8 = getelementptr inbounds nuw %"class.(anonymous namespace)::FactSet", ptr %7, i32 0, i32 0
  call void @_ZN4llvm11SmallVectorItLj4EEC2EOS1_(ptr noundef nonnull align 8 dereferenceable(32) %6, ptr noundef nonnull align 8 dereferenceable(32) %8)
  ret void
}

; Function Attrs: mustprogress nounwind uwtable
define internal noundef ptr @_ZNKSt13move_iteratorIPN12_GLOBAL__N_112CFGBlockInfoEE4baseEv(ptr noundef nonnull align 8 dereferenceable(8) %0) #0 align 2 {
  %2 = alloca ptr, align 8
  store ptr %0, ptr %2, align 8
  %3 = load ptr, ptr %2, align 8
  %4 = getelementptr inbounds nuw %"class.std::move_iterator", ptr %3, i32 0, i32 0
  %5 = load ptr, ptr %4, align 8
  ret ptr %5
}

; Function Attrs: mustprogress nounwind uwtable
define internal void @_ZN12_GLOBAL__N_112CFGBlockInfoC2EOS0_(ptr noundef nonnull align 8 dereferenceable(93) %0, ptr noundef nonnull align 8 dereferenceable(93) %1) unnamed_addr #0 align 2 {
  %3 = alloca ptr, align 8
  %4 = alloca ptr, align 8
  store ptr %0, ptr %3, align 8
  store ptr %1, ptr %4, align 8
  %5 = load ptr, ptr %3, align 8
  %6 = getelementptr inbounds nuw %"struct.(anonymous namespace)::CFGBlockInfo", ptr %5, i32 0, i32 0
  %7 = load ptr, ptr %4, align 8
  %8 = getelementptr inbounds nuw %"struct.(anonymous namespace)::CFGBlockInfo", ptr %7, i32 0, i32 0
  call void @_ZN12_GLOBAL__N_17FactSetC2EOS0_(ptr noundef nonnull align 8 dereferenceable(32) %6, ptr noundef nonnull align 8 dereferenceable(32) %8)
  %9 = getelementptr inbounds nuw %"struct.(anonymous namespace)::CFGBlockInfo", ptr %5, i32 0, i32 1
  %10 = load ptr, ptr %4, align 8
  %11 = getelementptr inbounds nuw %"struct.(anonymous namespace)::CFGBlockInfo", ptr %10, i32 0, i32 1
  call void @_ZN12_GLOBAL__N_17FactSetC2EOS0_(ptr noundef nonnull align 8 dereferenceable(32) %9, ptr noundef nonnull align 8 dereferenceable(32) %11)
  %12 = getelementptr inbounds nuw %"struct.(anonymous namespace)::CFGBlockInfo", ptr %5, i32 0, i32 2
  %13 = load ptr, ptr %4, align 8
  %14 = getelementptr inbounds nuw %"struct.(anonymous namespace)::CFGBlockInfo", ptr %13, i32 0, i32 2
  call void @_ZN4llvm12ImmutableMapIPKN5clang9NamedDeclEjNS_16ImutKeyValueInfoIS4_jEEEC2EOS7_(ptr noundef nonnull align 8 dereferenceable(8) %12, ptr noundef nonnull align 8 dereferenceable(8) %14)
  %15 = getelementptr inbounds nuw %"struct.(anonymous namespace)::CFGBlockInfo", ptr %5, i32 0, i32 3
  %16 = load ptr, ptr %4, align 8
  %17 = getelementptr inbounds nuw %"struct.(anonymous namespace)::CFGBlockInfo", ptr %16, i32 0, i32 3
  call void @_ZN4llvm12ImmutableMapIPKN5clang9NamedDeclEjNS_16ImutKeyValueInfoIS4_jEEEC2EOS7_(ptr noundef nonnull align 8 dereferenceable(8) %15, ptr noundef nonnull align 8 dereferenceable(8) %17)
  %18 = getelementptr inbounds nuw %"struct.(anonymous namespace)::CFGBlockInfo", ptr %5, i32 0, i32 4
  %19 = load ptr, ptr %4, align 8
  %20 = getelementptr inbounds nuw %"struct.(anonymous namespace)::CFGBlockInfo", ptr %19, i32 0, i32 4
  call void @llvm.memcpy.p0.p0.i64(ptr align 8 %18, ptr align 8 %20, i64 13, i1 false)
  ret void
}

; Function Attrs: mustprogress nounwind uwtable
define internal noundef zeroext i1 @_ZSteqIPN12_GLOBAL__N_112CFGBlockInfoEEbRKSt13move_iteratorIT_ES7_(ptr noundef nonnull align 8 dereferenceable(8) %0, ptr noundef nonnull align 8 dereferenceable(8) %1) #0 {
  %3 = alloca ptr, align 8
  %4 = alloca ptr, align 8
  store ptr %0, ptr %3, align 8
  store ptr %1, ptr %4, align 8
  %5 = load ptr, ptr %3, align 8
  %6 = call noundef ptr @_ZNKSt13move_iteratorIPN12_GLOBAL__N_112CFGBlockInfoEE4baseEv(ptr noundef nonnull align 8 dereferenceable(8) %5)
  %7 = load ptr, ptr %4, align 8
  %8 = call noundef ptr @_ZNKSt13move_iteratorIPN12_GLOBAL__N_112CFGBlockInfoEE4baseEv(ptr noundef nonnull align 8 dereferenceable(8) %7)
  %9 = icmp eq ptr %6, %8
  ret i1 %9
}

; Function Attrs: mustprogress nounwind uwtable
define internal noundef nonnull align 8 dereferenceable(8) ptr @_ZNSt13move_iteratorIPN12_GLOBAL__N_112CFGBlockInfoEEppEv(ptr noundef nonnull align 8 dereferenceable(8) %0) #0 align 2 {
  %2 = alloca ptr, align 8
  store ptr %0, ptr %2, align 8
  %3 = load ptr, ptr %2, align 8
  %4 = getelementptr inbounds nuw %"class.std::move_iterator", ptr %3, i32 0, i32 0
  %5 = load ptr, ptr %4, align 8
  %6 = getelementptr inbounds %"struct.(anonymous namespace)::CFGBlockInfo", ptr %5, i32 1
  store ptr %6, ptr %4, align 8
  ret ptr %3
}

; Function Attrs: mustprogress nounwind uwtable
define internal void @_ZSt10_ConstructIN12_GLOBAL__N_112CFGBlockInfoEJS1_EEvPT_DpOT0_(ptr noundef %0, ptr noundef nonnull align 8 dereferenceable(93) %1) #0 {
  %3 = alloca ptr, align 8
  %4 = alloca ptr, align 8
  store ptr %0, ptr %3, align 8
  store ptr %1, ptr %4, align 8
  %5 = load ptr, ptr %3, align 8
  %6 = load ptr, ptr %4, align 8
  call void @_ZN12_GLOBAL__N_112CFGBlockInfoC2EOS0_(ptr noundef nonnull align 8 dereferenceable(93) %5, ptr noundef nonnull align 8 dereferenceable(93) %6)
  ret void
}

; Function Attrs: mustprogress nounwind uwtable
define internal noundef nonnull align 8 dereferenceable(93) ptr @_ZNKSt13move_iteratorIPN12_GLOBAL__N_112CFGBlockInfoEEdeEv(ptr noundef nonnull align 8 dereferenceable(8) %0) #0 align 2 {
  %2 = alloca ptr, align 8
  store ptr %0, ptr %2, align 8
  %3 = load ptr, ptr %2, align 8
  %4 = getelementptr inbounds nuw %"class.std::move_iterator", ptr %3, i32 0, i32 0
  %5 = load ptr, ptr %4, align 8
  ret ptr %5
}

; Function Attrs: mustprogress nounwind uwtable
define internal noundef zeroext i1 @_ZStneIPN12_GLOBAL__N_112CFGBlockInfoEEbRKSt13move_iteratorIT_ES7_(ptr noundef nonnull align 8 dereferenceable(8) %0, ptr noundef nonnull align 8 dereferenceable(8) %1) #0 {
  %3 = alloca ptr, align 8
  %4 = alloca ptr, align 8
  store ptr %0, ptr %3, align 8
  store ptr %1, ptr %4, align 8
  %5 = load ptr, ptr %3, align 8
  %6 = load ptr, ptr %4, align 8
  %7 = call noundef zeroext i1 @_ZSteqIPN12_GLOBAL__N_112CFGBlockInfoEEbRKSt13move_iteratorIT_ES7_(ptr noundef nonnull align 8 dereferenceable(8) %5, ptr noundef nonnull align 8 dereferenceable(8) %6)
  %8 = xor i1 %7, true
  ret i1 %8
}

; Function Attrs: mustprogress nounwind uwtable
define internal noundef ptr @_ZSt16__do_uninit_copyISt13move_iteratorIPN12_GLOBAL__N_112CFGBlockInfoEES3_ET0_T_S6_S5_(ptr %0, ptr %1, ptr noundef %2) #0 {
  %4 = alloca %"class.std::move_iterator", align 8
  %5 = alloca %"class.std::move_iterator", align 8
  %6 = alloca ptr, align 8
  %7 = alloca ptr, align 8
  %8 = getelementptr inbounds nuw %"class.std::move_iterator", ptr %4, i32 0, i32 0
  store ptr %0, ptr %8, align 8
  %9 = getelementptr inbounds nuw %"class.std::move_iterator", ptr %5, i32 0, i32 0
  store ptr %1, ptr %9, align 8
  store ptr %2, ptr %6, align 8
  %10 = load ptr, ptr %6, align 8
  store ptr %10, ptr %7, align 8
  br label %11

11:                                               ; preds = %16, %3
  %12 = call noundef zeroext i1 @_ZStneIPN12_GLOBAL__N_112CFGBlockInfoEEbRKSt13move_iteratorIT_ES7_(ptr noundef nonnull align 8 dereferenceable(8) %4, ptr noundef nonnull align 8 dereferenceable(8) %5)
  br i1 %12, label %13, label %20

13:                                               ; preds = %11
  %14 = load ptr, ptr %7, align 8
  %15 = call noundef nonnull align 8 dereferenceable(93) ptr @_ZNKSt13move_iteratorIPN12_GLOBAL__N_112CFGBlockInfoEEdeEv(ptr noundef nonnull align 8 dereferenceable(8) %4)
  call void @_ZSt10_ConstructIN12_GLOBAL__N_112CFGBlockInfoEJS1_EEvPT_DpOT0_(ptr noundef %14, ptr noundef nonnull align 8 dereferenceable(93) %15)
  br label %16

16:                                               ; preds = %13
  %17 = call noundef nonnull align 8 dereferenceable(8) ptr @_ZNSt13move_iteratorIPN12_GLOBAL__N_112CFGBlockInfoEEppEv(ptr noundef nonnull align 8 dereferenceable(8) %4)
  %18 = load ptr, ptr %7, align 8
  %19 = getelementptr inbounds %"struct.(anonymous namespace)::CFGBlockInfo", ptr %18, i32 1
  store ptr %19, ptr %7, align 8
  br label %11, !llvm.loop !23

20:                                               ; preds = %11
  %21 = load ptr, ptr %7, align 8
  ret ptr %21
}

; Function Attrs: mustprogress nounwind uwtable
define internal noundef ptr @_ZNSt20__uninitialized_copyILb0EE13__uninit_copyISt13move_iteratorIPN12_GLOBAL__N_112CFGBlockInfoEES5_EET0_T_S8_S7_(ptr %0, ptr %1, ptr noundef %2) #0 align 2 {
  %4 = alloca %"class.std::move_iterator", align 8
  %5 = alloca %"class.std::move_iterator", align 8
  %6 = alloca ptr, align 8
  %7 = alloca %"class.std::move_iterator", align 8
  %8 = alloca %"class.std::move_iterator", align 8
  %9 = getelementptr inbounds nuw %"class.std::move_iterator", ptr %4, i32 0, i32 0
  store ptr %0, ptr %9, align 8
  %10 = getelementptr inbounds nuw %"class.std::move_iterator", ptr %5, i32 0, i32 0
  store ptr %1, ptr %10, align 8
  store ptr %2, ptr %6, align 8
  call void @llvm.memcpy.p0.p0.i64(ptr align 8 %7, ptr align 8 %4, i64 8, i1 false)
  call void @llvm.memcpy.p0.p0.i64(ptr align 8 %8, ptr align 8 %5, i64 8, i1 false)
  %11 = load ptr, ptr %6, align 8
  %12 = getelementptr inbounds nuw %"class.std::move_iterator", ptr %7, i32 0, i32 0
  %13 = load ptr, ptr %12, align 8
  %14 = getelementptr inbounds nuw %"class.std::move_iterator", ptr %8, i32 0, i32 0
  %15 = load ptr, ptr %14, align 8
  %16 = call noundef ptr @_ZSt16__do_uninit_copyISt13move_iteratorIPN12_GLOBAL__N_112CFGBlockInfoEES3_ET0_T_S6_S5_(ptr %13, ptr %15, ptr noundef %11)
  ret ptr %16
}

; Function Attrs: mustprogress nounwind uwtable
define internal noundef ptr @_ZSt18uninitialized_copyISt13move_iteratorIPN12_GLOBAL__N_112CFGBlockInfoEES3_ET0_T_S6_S5_(ptr %0, ptr %1, ptr noundef %2) #0 {
  %4 = alloca %"class.std::move_iterator", align 8
  %5 = alloca %"class.std::move_iterator", align 8
  %6 = alloca ptr, align 8
  %7 = alloca i8, align 1
  %8 = alloca i8, align 1
  %9 = alloca %"class.std::move_iterator", align 8
  %10 = alloca %"class.std::move_iterator", align 8
  %11 = getelementptr inbounds nuw %"class.std::move_iterator", ptr %4, i32 0, i32 0
  store ptr %0, ptr %11, align 8
  %12 = getelementptr inbounds nuw %"class.std::move_iterator", ptr %5, i32 0, i32 0
  store ptr %1, ptr %12, align 8
  store ptr %2, ptr %6, align 8
  store i8 0, ptr %7, align 1
  store i8 0, ptr %8, align 1
  call void @llvm.memcpy.p0.p0.i64(ptr align 8 %9, ptr align 8 %4, i64 8, i1 false)
  call void @llvm.memcpy.p0.p0.i64(ptr align 8 %10, ptr align 8 %5, i64 8, i1 false)
  %13 = load ptr, ptr %6, align 8
  %14 = getelementptr inbounds nuw %"class.std::move_iterator", ptr %9, i32 0, i32 0
  %15 = load ptr, ptr %14, align 8
  %16 = getelementptr inbounds nuw %"class.std::move_iterator", ptr %10, i32 0, i32 0
  %17 = load ptr, ptr %16, align 8
  %18 = call noundef ptr @_ZNSt20__uninitialized_copyILb0EE13__uninit_copyISt13move_iteratorIPN12_GLOBAL__N_112CFGBlockInfoEES5_EET0_T_S8_S7_(ptr %15, ptr %17, ptr noundef %13)
  ret ptr %18
}

; Function Attrs: mustprogress nounwind uwtable
define internal void @_ZNSt13move_iteratorIPN12_GLOBAL__N_112CFGBlockInfoEEC2ES2_(ptr noundef nonnull align 8 dereferenceable(8) %0, ptr noundef %1) unnamed_addr #0 align 2 {
  %3 = alloca ptr, align 8
  %4 = alloca ptr, align 8
  store ptr %0, ptr %3, align 8
  store ptr %1, ptr %4, align 8
  %5 = load ptr, ptr %3, align 8
  %6 = getelementptr inbounds nuw %"class.std::move_iterator", ptr %5, i32 0, i32 0
  %7 = load ptr, ptr %4, align 8
  store ptr %7, ptr %6, align 8
  ret void
}

; Function Attrs: mustprogress nounwind uwtable
define internal noundef ptr @_ZSt22__uninitialized_copy_aISt13move_iteratorIPN12_GLOBAL__N_112CFGBlockInfoEES3_S2_ET0_T_S6_S5_RSaIT1_E(ptr %0, ptr %1, ptr noundef %2, ptr noundef nonnull align 1 dereferenceable(1) %3) #0 {
  %5 = alloca %"class.std::move_iterator", align 8
  %6 = alloca %"class.std::move_iterator", align 8
  %7 = alloca ptr, align 8
  %8 = alloca ptr, align 8
  %9 = alloca %"class.std::move_iterator", align 8
  %10 = alloca %"class.std::move_iterator", align 8
  %11 = getelementptr inbounds nuw %"class.std::move_iterator", ptr %5, i32 0, i32 0
  store ptr %0, ptr %11, align 8
  %12 = getelementptr inbounds nuw %"class.std::move_iterator", ptr %6, i32 0, i32 0
  store ptr %1, ptr %12, align 8
  store ptr %2, ptr %7, align 8
  store ptr %3, ptr %8, align 8
  call void @llvm.memcpy.p0.p0.i64(ptr align 8 %9, ptr align 8 %5, i64 8, i1 false)
  call void @llvm.memcpy.p0.p0.i64(ptr align 8 %10, ptr align 8 %6, i64 8, i1 false)
  %13 = load ptr, ptr %7, align 8
  %14 = getelementptr inbounds nuw %"class.std::move_iterator", ptr %9, i32 0, i32 0
  %15 = load ptr, ptr %14, align 8
  %16 = getelementptr inbounds nuw %"class.std::move_iterator", ptr %10, i32 0, i32 0
  %17 = load ptr, ptr %16, align 8
  %18 = call noundef ptr @_ZSt18uninitialized_copyISt13move_iteratorIPN12_GLOBAL__N_112CFGBlockInfoEES3_ET0_T_S6_S5_(ptr %15, ptr %17, ptr noundef %13)
  ret ptr %18
}

; Function Attrs: mustprogress nounwind uwtable
define internal ptr @_ZSt18make_move_iteratorIPN12_GLOBAL__N_112CFGBlockInfoEESt13move_iteratorIT_ES4_(ptr noundef %0) #0 {
  %2 = alloca %"class.std::move_iterator", align 8
  %3 = alloca ptr, align 8
  store ptr %0, ptr %3, align 8
  %4 = load ptr, ptr %3, align 8
  call void @_ZNSt13move_iteratorIPN12_GLOBAL__N_112CFGBlockInfoEEC2ES2_(ptr noundef nonnull align 8 dereferenceable(8) %2, ptr noundef %4)
  %5 = getelementptr inbounds nuw %"class.std::move_iterator", ptr %2, i32 0, i32 0
  %6 = load ptr, ptr %5, align 8
  ret ptr %6
}

; Function Attrs: mustprogress nounwind uwtable
define internal noundef ptr @_ZSt22__uninitialized_move_aIPN12_GLOBAL__N_112CFGBlockInfoES2_SaIS1_EET0_T_S5_S4_RT1_(ptr noundef %0, ptr noundef %1, ptr noundef %2, ptr noundef nonnull align 1 dereferenceable(1) %3) #0 {
  %5 = alloca ptr, align 8
  %6 = alloca ptr, align 8
  %7 = alloca ptr, align 8
  %8 = alloca ptr, align 8
  %9 = alloca %"class.std::move_iterator", align 8
  %10 = alloca %"class.std::move_iterator", align 8
  store ptr %0, ptr %5, align 8
  store ptr %1, ptr %6, align 8
  store ptr %2, ptr %7, align 8
  store ptr %3, ptr %8, align 8
  %11 = load ptr, ptr %5, align 8
  %12 = call ptr @_ZSt18make_move_iteratorIPN12_GLOBAL__N_112CFGBlockInfoEESt13move_iteratorIT_ES4_(ptr noundef %11)
  %13 = getelementptr inbounds nuw %"class.std::move_iterator", ptr %9, i32 0, i32 0
  store ptr %12, ptr %13, align 8
  %14 = load ptr, ptr %6, align 8
  %15 = call ptr @_ZSt18make_move_iteratorIPN12_GLOBAL__N_112CFGBlockInfoEESt13move_iteratorIT_ES4_(ptr noundef %14)
  %16 = getelementptr inbounds nuw %"class.std::move_iterator", ptr %10, i32 0, i32 0
  store ptr %15, ptr %16, align 8
  %17 = load ptr, ptr %7, align 8
  %18 = load ptr, ptr %8, align 8
  %19 = getelementptr inbounds nuw %"class.std::move_iterator", ptr %9, i32 0, i32 0
  %20 = load ptr, ptr %19, align 8
  %21 = getelementptr inbounds nuw %"class.std::move_iterator", ptr %10, i32 0, i32 0
  %22 = load ptr, ptr %21, align 8
  %23 = call noundef ptr @_ZSt22__uninitialized_copy_aISt13move_iteratorIPN12_GLOBAL__N_112CFGBlockInfoEES3_S2_ET0_T_S6_S5_RSaIT1_E(ptr %20, ptr %22, ptr noundef %17, ptr noundef nonnull align 1 dereferenceable(1) %18)
  ret ptr %23
}