; Function Attrs: mustprogress nounwind uwtable
define internal fastcc void @_ZSt22__uninitialized_move_aIPN12_GLOBAL__N_112CFGBlockInfoES2_SaIS1_EET0_T_S5_S4_RT1_(ptr noundef %0, ptr noundef readnone %1, ptr noundef %2) unnamed_addr #1 {
  %.not7.i.i.i.i = icmp eq ptr %0, %1
  br i1 %.not7.i.i.i.i, label %_ZSt22__uninitialized_copy_aISt13move_iteratorIPN12_GLOBAL__N_112CFGBlockInfoEES3_S2_ET0_T_S6_S5_RSaIT1_E.exit, label %.lr.ph.i.i.i.i

.lr.ph.i.i.i.i:                                   ; preds = %3, %_ZSt10_ConstructIN12_GLOBAL__N_112CFGBlockInfoEJS1_EEvPT_DpOT0_.exit.i.i.i.i
  %.09.i.i.i.i = phi ptr [ %23, %_ZSt10_ConstructIN12_GLOBAL__N_112CFGBlockInfoEJS1_EEvPT_DpOT0_.exit.i.i.i.i ], [ %2, %3 ]
  %.sroa.06.08.i.i.i.i = phi ptr [ %22, %_ZSt10_ConstructIN12_GLOBAL__N_112CFGBlockInfoEJS1_EEvPT_DpOT0_.exit.i.i.i.i ], [ %0, %3 ]
  %4 = getelementptr inbounds nuw i8, ptr %.09.i.i.i.i, i64 24
  tail call void @_ZN4llvm15SmallVectorBaseImEC2EPvm(ptr noundef nonnull align 8 dereferenceable(93) %.09.i.i.i.i, ptr noundef nonnull %4, i64 noundef 4) #18
  %5 = tail call noundef zeroext i1 @_ZNK4llvm15SmallVectorBaseImE5emptyEv(ptr noundef nonnull align 8 dereferenceable(93) %.sroa.06.08.i.i.i.i) #18
  br i1 %5, label %_ZN12_GLOBAL__N_17FactSetC2EOS0_.exit.i.i.i.i.i.i, label %6

6:                                                ; preds = %.lr.ph.i.i.i.i
  %7 = tail call noundef nonnull align 8 dereferenceable(24) ptr @_ZN4llvm15SmallVectorImplItEaSEOS1_(ptr noundef nonnull align 8 dereferenceable(93) %.09.i.i.i.i, ptr noundef nonnull align 8 dereferenceable(93) %.sroa.06.08.i.i.i.i)
  br label %_ZN12_GLOBAL__N_17FactSetC2EOS0_.exit.i.i.i.i.i.i

_ZN12_GLOBAL__N_17FactSetC2EOS0_.exit.i.i.i.i.i.i: ; preds = %6, %.lr.ph.i.i.i.i
  %8 = getelementptr inbounds nuw i8, ptr %.09.i.i.i.i, i64 32
  %9 = getelementptr inbounds nuw i8, ptr %.sroa.06.08.i.i.i.i, i64 32
  %10 = getelementptr inbounds nuw i8, ptr %.09.i.i.i.i, i64 56
  tail call void @_ZN4llvm15SmallVectorBaseImEC2EPvm(ptr noundef nonnull align 8 dereferenceable(32) %8, ptr noundef nonnull %10, i64 noundef 4) #18
  %11 = tail call noundef zeroext i1 @_ZNK4llvm15SmallVectorBaseImE5emptyEv(ptr noundef nonnull align 8 dereferenceable(32) %9) #18
  br i1 %11, label %_ZSt10_ConstructIN12_GLOBAL__N_112CFGBlockInfoEJS1_EEvPT_DpOT0_.exit.i.i.i.i, label %12

12:                                               ; preds = %_ZN12_GLOBAL__N_17FactSetC2EOS0_.exit.i.i.i.i.i.i
  %13 = tail call noundef nonnull align 8 dereferenceable(24) ptr @_ZN4llvm15SmallVectorImplItEaSEOS1_(ptr noundef nonnull align 8 dereferenceable(32) %8, ptr noundef nonnull align 8 dereferenceable(32) %9)
  br label %_ZSt10_ConstructIN12_GLOBAL__N_112CFGBlockInfoEJS1_EEvPT_DpOT0_.exit.i.i.i.i

_ZSt10_ConstructIN12_GLOBAL__N_112CFGBlockInfoEJS1_EEvPT_DpOT0_.exit.i.i.i.i: ; preds = %12, %_ZN12_GLOBAL__N_17FactSetC2EOS0_.exit.i.i.i.i.i.i
  %14 = getelementptr inbounds nuw i8, ptr %.09.i.i.i.i, i64 64
  %15 = getelementptr inbounds nuw i8, ptr %.sroa.06.08.i.i.i.i, i64 64
  %16 = load ptr, ptr %15, align 8
  store ptr %16, ptr %14, align 8
  store ptr null, ptr %15, align 8
  %17 = getelementptr inbounds nuw i8, ptr %.09.i.i.i.i, i64 72
  %18 = getelementptr inbounds nuw i8, ptr %.sroa.06.08.i.i.i.i, i64 72
  %19 = load ptr, ptr %18, align 8
  store ptr %19, ptr %17, align 8
  store ptr null, ptr %18, align 8
  %20 = getelementptr inbounds nuw i8, ptr %.09.i.i.i.i, i64 80
  %21 = getelementptr inbounds nuw i8, ptr %.sroa.06.08.i.i.i.i, i64 80
  tail call void @llvm.memcpy.p0.p0.i64(ptr noundef nonnull align 8 dereferenceable(13) %20, ptr noundef nonnull align 8 dereferenceable(13) %21, i64 13, i1 false)
  %22 = getelementptr inbounds nuw i8, ptr %.sroa.06.08.i.i.i.i, i64 96
  %23 = getelementptr inbounds nuw i8, ptr %.09.i.i.i.i, i64 96
  %.not.i.i.i.i = icmp eq ptr %22, %1
  br i1 %.not.i.i.i.i, label %_ZSt22__uninitialized_copy_aISt13move_iteratorIPN12_GLOBAL__N_112CFGBlockInfoEES3_S2_ET0_T_S6_S5_RSaIT1_E.exit, label %.lr.ph.i.i.i.i, !llvm.loop !244

_ZSt22__uninitialized_copy_aISt13move_iteratorIPN12_GLOBAL__N_112CFGBlockInfoEES3_S2_ET0_T_S6_S5_RSaIT1_E.exit: ; preds = %_ZSt10_ConstructIN12_GLOBAL__N_112CFGBlockInfoEJS1_EEvPT_DpOT0_.exit.i.i.i.i, %3
  ret void
}